Modules list:
-------------
bcd.o:
    CODE              Offs=000000  Size=000099  Align=00001  Fill=0000
    RODATA            Offs=000000  Size=000000  Align=00001  Fill=0000
    BSS               Offs=000000  Size=000000  Align=00001  Fill=0000
    DATA              Offs=000000  Size=000000  Align=00001  Fill=0000
    ZEROPAGE          Offs=000000  Size=000000  Align=00001  Fill=0000
    NULL              Offs=000000  Size=000000  Align=00001  Fill=0000
climber.o:
    CODE              Offs=000099  Size=0016B7  Align=00001  Fill=0000
    RODATA            Offs=000000  Size=00018C  Align=00001  Fill=0000
    BSS               Offs=000000  Size=000090  Align=00001  Fill=0000
    DATA              Offs=000000  Size=000008  Align=00001  Fill=0000
    ZEROPAGE          Offs=000000  Size=000000  Align=00001  Fill=0000
    NULL              Offs=000000  Size=000000  Align=00001  Fill=0000
vrambuf.o:
    CODE              Offs=001750  Size=0000AB  Align=00001  Fill=0000
    RODATA            Offs=00018C  Size=000000  Align=00001  Fill=0000
    BSS               Offs=000090  Size=000000  Align=00001  Fill=0000
    DATA              Offs=000008  Size=000001  Align=00001  Fill=0000
    ZEROPAGE          Offs=000000  Size=000000  Align=00001  Fill=0000
    NULL              Offs=000000  Size=000000  Align=00001  Fill=0000
chr_generic.o:
    CODE              Offs=0017FB  Size=000000  Align=00001  Fill=0000
    RODATA            Offs=00018C  Size=000000  Align=00001  Fill=0000
    BSS               Offs=000090  Size=000000  Align=00001  Fill=0000
    DATA              Offs=000009  Size=000000  Align=00001  Fill=0000
    ZEROPAGE          Offs=000000  Size=000000  Align=00001  Fill=0000
    NULL              Offs=000000  Size=000000  Align=00001  Fill=0000
    CHARS             Offs=000000  Size=001000  Align=00001  Fill=0000
demosounds.o:
    CODE              Offs=0017FB  Size=0002AF  Align=00001  Fill=0000
    RODATA            Offs=00018C  Size=000000  Align=00001  Fill=0000
    BSS               Offs=000090  Size=000000  Align=00001  Fill=0000
    DATA              Offs=000009  Size=000000  Align=00001  Fill=0000
    ZEROPAGE          Offs=000000  Size=000000  Align=00001  Fill=0000
    NULL              Offs=000000  Size=000000  Align=00001  Fill=0000
famitone.o:
    CODE              Offs=001AAA  Size=00061E  Align=00001  Fill=0000
    RODATA            Offs=00018C  Size=000000  Align=00001  Fill=0000
    BSS               Offs=000090  Size=000000  Align=00001  Fill=0000
    DATA              Offs=000009  Size=000000  Align=00001  Fill=0000
    ZEROPAGE          Offs=000000  Size=000003  Align=00001  Fill=0000
    NULL              Offs=000000  Size=000000  Align=00001  Fill=0000
header.o:
    CODE              Offs=0020C8  Size=000000  Align=00001  Fill=0000
    RODATA            Offs=00018C  Size=000000  Align=00001  Fill=0000
    BSS               Offs=000090  Size=000000  Align=00001  Fill=0000
    DATA              Offs=000009  Size=000000  Align=00001  Fill=0000
    ZEROPAGE          Offs=000003  Size=000000  Align=00001  Fill=0000
    NULL              Offs=000000  Size=000000  Align=00001  Fill=0000
    INESHDR           Offs=000000  Size=000007  Align=00001  Fill=0000
music_dangerstreets.o:
    CODE              Offs=0020C8  Size=001102  Align=00001  Fill=0000
    RODATA            Offs=00018C  Size=000000  Align=00001  Fill=0000
    BSS               Offs=000090  Size=000000  Align=00001  Fill=0000
    DATA              Offs=000009  Size=000000  Align=00001  Fill=0000
    ZEROPAGE          Offs=000003  Size=000000  Align=00001  Fill=0000
    NULL              Offs=000000  Size=000000  Align=00001  Fill=0000
crt0.o:
    CODE              Offs=0031CA  Size=000000  Align=00001  Fill=0000
    RODATA            Offs=00018C  Size=000000  Align=00001  Fill=0000
    BSS               Offs=000090  Size=000000  Align=00001  Fill=0000
    DATA              Offs=000009  Size=000000  Align=00001  Fill=0000
    ZEROPAGE          Offs=000003  Size=000022  Align=00001  Fill=0000
    NULL              Offs=000000  Size=000000  Align=00001  Fill=0000
    STARTUP           Offs=000000  Size=000513  Align=00001  Fill=0000
    CHARS             Offs=001000  Size=000000  Align=00001  Fill=0000
    SAMPLES           Offs=000000  Size=000000  Align=00001  Fill=0000
    VECTORS           Offs=000000  Size=000006  Align=00001  Fill=0000
lz4vram.o:
    CODE              Offs=0031CA  Size=00017C  Align=00001  Fill=0000
    RODATA            Offs=00018C  Size=000000  Align=00001  Fill=0000
    BSS               Offs=000090  Size=000000  Align=00001  Fill=0000
    DATA              Offs=000009  Size=000000  Align=00001  Fill=0000
    ZEROPAGE          Offs=000025  Size=000000  Align=00001  Fill=0000
    NULL              Offs=000000  Size=000000  Align=00001  Fill=0000
memfill.o:
    CODE              Offs=003346  Size=00002F  Align=00001  Fill=0000
    RODATA            Offs=00018C  Size=000000  Align=00001  Fill=0000
    BSS               Offs=000090  Size=000000  Align=00001  Fill=0000
    DATA              Offs=000009  Size=000000  Align=00001  Fill=0000
    ZEROPAGE          Offs=000025  Size=000000  Align=00001  Fill=0000
    NULL              Offs=000000  Size=000000  Align=00001  Fill=0000
oam_clear_fast.o:
    CODE              Offs=003375  Size=0000C3  Align=00001  Fill=0000
    RODATA            Offs=00018C  Size=000000  Align=00001  Fill=0000
    BSS               Offs=000090  Size=000000  Align=00001  Fill=0000
    DATA              Offs=000009  Size=000000  Align=00001  Fill=0000
    ZEROPAGE          Offs=000025  Size=000000  Align=00001  Fill=0000
    NULL              Offs=000000  Size=000000  Align=00001  Fill=0000
oam_meta_spr.o:
    CODE              Offs=003438  Size=00004A  Align=00001  Fill=0000
    RODATA            Offs=00018C  Size=000000  Align=00001  Fill=0000
    BSS               Offs=000090  Size=000000  Align=00001  Fill=0000
    DATA              Offs=000009  Size=000000  Align=00001  Fill=0000
    ZEROPAGE          Offs=000025  Size=000000  Align=00001  Fill=0000
    NULL              Offs=000000  Size=000000  Align=00001  Fill=0000
oam_meta_spr_clip.o:
    CODE              Offs=003482  Size=000058  Align=00001  Fill=0000
    RODATA            Offs=00018C  Size=000000  Align=00001  Fill=0000
    BSS               Offs=000090  Size=000000  Align=00001  Fill=0000
    DATA              Offs=000009  Size=000000  Align=00001  Fill=0000
    ZEROPAGE          Offs=000025  Size=000002  Align=00001  Fill=0000
    NULL              Offs=000000  Size=000000  Align=00001  Fill=0000
oam_meta_spr_pal.o:
    CODE              Offs=0034DA  Size=000050  Align=00001  Fill=0000
    RODATA            Offs=00018C  Size=000000  Align=00001  Fill=0000
    BSS               Offs=000090  Size=000000  Align=00001  Fill=0000
    DATA              Offs=000009  Size=000000  Align=00001  Fill=0000
    ZEROPAGE          Offs=000027  Size=000000  Align=00001  Fill=0000
    NULL              Offs=000000  Size=000000  Align=00001  Fill=0000
oam_spr.o:
    CODE              Offs=00352A  Size=00002C  Align=00001  Fill=0000
    RODATA            Offs=00018C  Size=000000  Align=00001  Fill=0000
    BSS               Offs=000090  Size=000000  Align=00001  Fill=0000
    DATA              Offs=000009  Size=000000  Align=00001  Fill=0000
    ZEROPAGE          Offs=000027  Size=000000  Align=00001  Fill=0000
    NULL              Offs=000000  Size=000000  Align=00001  Fill=0000
pad.o:
    CODE              Offs=003556  Size=000051  Align=00001  Fill=0000
    RODATA            Offs=00018C  Size=000000  Align=00001  Fill=0000
    BSS               Offs=000090  Size=000000  Align=00001  Fill=0000
    DATA              Offs=000009  Size=000000  Align=00001  Fill=0000
    ZEROPAGE          Offs=000027  Size=000006  Align=00001  Fill=0000
    NULL              Offs=000000  Size=000000  Align=00001  Fill=0000
rand.o:
    CODE              Offs=0035A7  Size=000032  Align=00001  Fill=0000
    RODATA            Offs=00018C  Size=000000  Align=00001  Fill=0000
    BSS               Offs=000090  Size=000000  Align=00001  Fill=0000
    DATA              Offs=000009  Size=000000  Align=00001  Fill=0000
    ZEROPAGE          Offs=00002D  Size=000002  Align=00001  Fill=0000
    NULL              Offs=000000  Size=000000  Align=00001  Fill=0000
split.o:
    CODE              Offs=0035D9  Size=00002C  Align=00001  Fill=0000
    RODATA            Offs=00018C  Size=000000  Align=00001  Fill=0000
    BSS               Offs=000090  Size=000000  Align=00001  Fill=0000
    DATA              Offs=000009  Size=000000  Align=00001  Fill=0000
    ZEROPAGE          Offs=00002F  Size=000000  Align=00001  Fill=0000
    NULL              Offs=000000  Size=000000  Align=00001  Fill=0000
splitxy.o:
    CODE              Offs=003605  Size=00005F  Align=00001  Fill=0000
    RODATA            Offs=00018C  Size=000000  Align=00001  Fill=0000
    BSS               Offs=000090  Size=000000  Align=00001  Fill=0000
    DATA              Offs=000009  Size=000000  Align=00001  Fill=0000
    ZEROPAGE          Offs=00002F  Size=000000  Align=00001  Fill=0000
    NULL              Offs=000000  Size=000000  Align=00001  Fill=0000
vram_read.o:
    CODE              Offs=003664  Size=00002A  Align=00001  Fill=0000
    RODATA            Offs=00018C  Size=000000  Align=00001  Fill=0000
    BSS               Offs=000090  Size=000000  Align=00001  Fill=0000
    DATA              Offs=000009  Size=000000  Align=00001  Fill=0000
    ZEROPAGE          Offs=00002F  Size=000000  Align=00001  Fill=0000
    NULL              Offs=000000  Size=000000  Align=00001  Fill=0000
vram_unrle.o:
    CODE              Offs=00368E  Size=000037  Align=00001  Fill=0000
    RODATA            Offs=00018C  Size=000000  Align=00001  Fill=0000
    BSS               Offs=000090  Size=000000  Align=00001  Fill=0000
    DATA              Offs=000009  Size=000000  Align=00001  Fill=0000
    ZEROPAGE          Offs=00002F  Size=000000  Align=00001  Fill=0000
    NULL              Offs=000000  Size=000000  Align=00001  Fill=0000
..\cc65\lib/nes.lib(addeqsp.o):
    CODE              Offs=0036C5  Size=000011  Align=00001  Fill=0000
    RODATA            Offs=00018C  Size=000000  Align=00001  Fill=0000
    BSS               Offs=000090  Size=000000  Align=00001  Fill=0000
    DATA              Offs=000009  Size=000000  Align=00001  Fill=0000
    ZEROPAGE          Offs=00002F  Size=000000  Align=00001  Fill=0000
    NULL              Offs=000000  Size=000000  Align=00001  Fill=0000
..\cc65\lib/nes.lib(addysp.o):
    CODE              Offs=0036D6  Size=00000E  Align=00001  Fill=0000
    RODATA            Offs=00018C  Size=000000  Align=00001  Fill=0000
    BSS               Offs=000090  Size=000000  Align=00001  Fill=0000
    DATA              Offs=000009  Size=000000  Align=00001  Fill=0000
    ZEROPAGE          Offs=00002F  Size=000000  Align=00001  Fill=0000
    NULL              Offs=000000  Size=000000  Align=00001  Fill=0000
..\cc65\lib/nes.lib(aslax2.o):
    CODE              Offs=0036E4  Size=00000B  Align=00001  Fill=0000
    RODATA            Offs=00018C  Size=000000  Align=00001  Fill=0000
    BSS               Offs=000090  Size=000000  Align=00001  Fill=0000
    DATA              Offs=000009  Size=000000  Align=00001  Fill=0000
    ZEROPAGE          Offs=00002F  Size=000000  Align=00001  Fill=0000
    NULL              Offs=000000  Size=000000  Align=00001  Fill=0000
..\cc65\lib/nes.lib(aslax3.o):
    CODE              Offs=0036EF  Size=00000E  Align=00001  Fill=0000
    RODATA            Offs=00018C  Size=000000  Align=00001  Fill=0000
    BSS               Offs=000090  Size=000000  Align=00001  Fill=0000
    DATA              Offs=000009  Size=000000  Align=00001  Fill=0000
    ZEROPAGE          Offs=00002F  Size=000000  Align=00001  Fill=0000
    NULL              Offs=000000  Size=000000  Align=00001  Fill=0000
..\cc65\lib/nes.lib(aslax4.o):
    CODE              Offs=0036FD  Size=000011  Align=00001  Fill=0000
    RODATA            Offs=00018C  Size=000000  Align=00001  Fill=0000
    BSS               Offs=000090  Size=000000  Align=00001  Fill=0000
    DATA              Offs=000009  Size=000000  Align=00001  Fill=0000
    ZEROPAGE          Offs=00002F  Size=000000  Align=00001  Fill=0000
    NULL              Offs=000000  Size=000000  Align=00001  Fill=0000
..\cc65\lib/nes.lib(asrax2.o):
    CODE              Offs=00370E  Size=00000F  Align=00001  Fill=0000
    RODATA            Offs=00018C  Size=000000  Align=00001  Fill=0000
    BSS               Offs=000090  Size=000000  Align=00001  Fill=0000
    DATA              Offs=000009  Size=000000  Align=00001  Fill=0000
    ZEROPAGE          Offs=00002F  Size=000000  Align=00001  Fill=0000
    NULL              Offs=000000  Size=000000  Align=00001  Fill=0000
..\cc65\lib/nes.lib(asrax3.o):
    CODE              Offs=00371D  Size=000014  Align=00001  Fill=0000
    RODATA            Offs=00018C  Size=000000  Align=00001  Fill=0000
    BSS               Offs=000090  Size=000000  Align=00001  Fill=0000
    DATA              Offs=000009  Size=000000  Align=00001  Fill=0000
    ZEROPAGE          Offs=00002F  Size=000000  Align=00001  Fill=0000
    NULL              Offs=000000  Size=000000  Align=00001  Fill=0000
..\cc65\lib/nes.lib(compl.o):
    CODE              Offs=003731  Size=000009  Align=00001  Fill=0000
    RODATA            Offs=00018C  Size=000000  Align=00001  Fill=0000
    BSS               Offs=000090  Size=000000  Align=00001  Fill=0000
    DATA              Offs=000009  Size=000000  Align=00001  Fill=0000
    ZEROPAGE          Offs=00002F  Size=000000  Align=00001  Fill=0000
    NULL              Offs=000000  Size=000000  Align=00001  Fill=0000
..\cc65\lib/nes.lib(condes.o):
    CODE              Offs=00373A  Size=00000C  Align=00001  Fill=0000
    RODATA            Offs=00018C  Size=000000  Align=00001  Fill=0000
    BSS               Offs=000090  Size=000000  Align=00001  Fill=0000
    DATA              Offs=000009  Size=000025  Align=00001  Fill=0000
    ZEROPAGE          Offs=00002F  Size=000000  Align=00001  Fill=0000
    NULL              Offs=000000  Size=000000  Align=00001  Fill=0000
    ONCE              Offs=000000  Size=00000C  Align=00001  Fill=0000
..\cc65\lib/nes.lib(copydata.o):
    CODE              Offs=003746  Size=00002D  Align=00001  Fill=0000
    RODATA            Offs=00018C  Size=000000  Align=00001  Fill=0000
    BSS               Offs=000090  Size=000000  Align=00001  Fill=0000
    DATA              Offs=00002E  Size=000000  Align=00001  Fill=0000
    ZEROPAGE          Offs=00002F  Size=000000  Align=00001  Fill=0000
    NULL              Offs=000000  Size=000000  Align=00001  Fill=0000
..\cc65\lib/nes.lib(decsp1.o):
    CODE              Offs=003773  Size=000009  Align=00001  Fill=0000
    RODATA            Offs=00018C  Size=000000  Align=00001  Fill=0000
    BSS               Offs=000090  Size=000000  Align=00001  Fill=0000
    DATA              Offs=00002E  Size=000000  Align=00001  Fill=0000
    ZEROPAGE          Offs=00002F  Size=000000  Align=00001  Fill=0000
    NULL              Offs=000000  Size=000000  Align=00001  Fill=0000
..\cc65\lib/nes.lib(decsp2.o):
    CODE              Offs=00377C  Size=00000D  Align=00001  Fill=0000
    RODATA            Offs=00018C  Size=000000  Align=00001  Fill=0000
    BSS               Offs=000090  Size=000000  Align=00001  Fill=0000
    DATA              Offs=00002E  Size=000000  Align=00001  Fill=0000
    ZEROPAGE          Offs=00002F  Size=000000  Align=00001  Fill=0000
    NULL              Offs=000000  Size=000000  Align=00001  Fill=0000
..\cc65\lib/nes.lib(decsp3.o):
    CODE              Offs=003789  Size=00000D  Align=00001  Fill=0000
    RODATA            Offs=00018C  Size=000000  Align=00001  Fill=0000
    BSS               Offs=000090  Size=000000  Align=00001  Fill=0000
    DATA              Offs=00002E  Size=000000  Align=00001  Fill=0000
    ZEROPAGE          Offs=00002F  Size=000000  Align=00001  Fill=0000
    NULL              Offs=000000  Size=000000  Align=00001  Fill=0000
..\cc65\lib/nes.lib(decsp4.o):
    CODE              Offs=003796  Size=00000D  Align=00001  Fill=0000
    RODATA            Offs=00018C  Size=000000  Align=00001  Fill=0000
    BSS               Offs=000090  Size=000000  Align=00001  Fill=0000
    DATA              Offs=00002E  Size=000000  Align=00001  Fill=0000
    ZEROPAGE          Offs=00002F  Size=000000  Align=00001  Fill=0000
    NULL              Offs=000000  Size=000000  Align=00001  Fill=0000
..\cc65\lib/nes.lib(decsp5.o):
    CODE              Offs=0037A3  Size=00000D  Align=00001  Fill=0000
    RODATA            Offs=00018C  Size=000000  Align=00001  Fill=0000
    BSS               Offs=000090  Size=000000  Align=00001  Fill=0000
    DATA              Offs=00002E  Size=000000  Align=00001  Fill=0000
    ZEROPAGE          Offs=00002F  Size=000000  Align=00001  Fill=0000
    NULL              Offs=000000  Size=000000  Align=00001  Fill=0000
..\cc65\lib/nes.lib(icmp.o):
    CODE              Offs=0037B0  Size=00002E  Align=00001  Fill=0000
    RODATA            Offs=00018C  Size=000000  Align=00001  Fill=0000
    BSS               Offs=000090  Size=000000  Align=00001  Fill=0000
    DATA              Offs=00002E  Size=000000  Align=00001  Fill=0000
    ZEROPAGE          Offs=00002F  Size=000000  Align=00001  Fill=0000
    NULL              Offs=000000  Size=000000  Align=00001  Fill=0000
..\cc65\lib/nes.lib(incsp1.o):
    CODE              Offs=0037DE  Size=000007  Align=00001  Fill=0000
    RODATA            Offs=00018C  Size=000000  Align=00001  Fill=0000
    BSS               Offs=000090  Size=000000  Align=00001  Fill=0000
    DATA              Offs=00002E  Size=000000  Align=00001  Fill=0000
    ZEROPAGE          Offs=00002F  Size=000000  Align=00001  Fill=0000
    NULL              Offs=000000  Size=000000  Align=00001  Fill=0000
..\cc65\lib/nes.lib(incsp2.o):
    CODE              Offs=0037E5  Size=000016  Align=00001  Fill=0000
    RODATA            Offs=00018C  Size=000000  Align=00001  Fill=0000
    BSS               Offs=000090  Size=000000  Align=00001  Fill=0000
    DATA              Offs=00002E  Size=000000  Align=00001  Fill=0000
    ZEROPAGE          Offs=00002F  Size=000000  Align=00001  Fill=0000
    NULL              Offs=000000  Size=000000  Align=00001  Fill=0000
..\cc65\lib/nes.lib(incsp3.o):
    CODE              Offs=0037FB  Size=000005  Align=00001  Fill=0000
    RODATA            Offs=00018C  Size=000000  Align=00001  Fill=0000
    BSS               Offs=000090  Size=000000  Align=00001  Fill=0000
    DATA              Offs=00002E  Size=000000  Align=00001  Fill=0000
    ZEROPAGE          Offs=00002F  Size=000000  Align=00001  Fill=0000
    NULL              Offs=000000  Size=000000  Align=00001  Fill=0000
..\cc65\lib/nes.lib(incsp4.o):
    CODE              Offs=003800  Size=000005  Align=00001  Fill=0000
    RODATA            Offs=00018C  Size=000000  Align=00001  Fill=0000
    BSS               Offs=000090  Size=000000  Align=00001  Fill=0000
    DATA              Offs=00002E  Size=000000  Align=00001  Fill=0000
    ZEROPAGE          Offs=00002F  Size=000000  Align=00001  Fill=0000
    NULL              Offs=000000  Size=000000  Align=00001  Fill=0000
..\cc65\lib/nes.lib(incsp5.o):
    CODE              Offs=003805  Size=000005  Align=00001  Fill=0000
    RODATA            Offs=00018C  Size=000000  Align=00001  Fill=0000
    BSS               Offs=000090  Size=000000  Align=00001  Fill=0000
    DATA              Offs=00002E  Size=000000  Align=00001  Fill=0000
    ZEROPAGE          Offs=00002F  Size=000000  Align=00001  Fill=0000
    NULL              Offs=000000  Size=000000  Align=00001  Fill=0000
..\cc65\lib/nes.lib(incsp8.o):
    CODE              Offs=00380A  Size=000005  Align=00001  Fill=0000
    RODATA            Offs=00018C  Size=000000  Align=00001  Fill=0000
    BSS               Offs=000090  Size=000000  Align=00001  Fill=0000
    DATA              Offs=00002E  Size=000000  Align=00001  Fill=0000
    ZEROPAGE          Offs=00002F  Size=000000  Align=00001  Fill=0000
    NULL              Offs=000000  Size=000000  Align=00001  Fill=0000
..\cc65\lib/nes.lib(ldai.o):
    CODE              Offs=00380F  Size=00000C  Align=00001  Fill=0000
    RODATA            Offs=00018C  Size=000000  Align=00001  Fill=0000
    BSS               Offs=000090  Size=000000  Align=00001  Fill=0000
    DATA              Offs=00002E  Size=000000  Align=00001  Fill=0000
    ZEROPAGE          Offs=00002F  Size=000000  Align=00001  Fill=0000
    NULL              Offs=000000  Size=000000  Align=00001  Fill=0000
..\cc65\lib/nes.lib(makebool.o):
    CODE              Offs=00381B  Size=00002C  Align=00001  Fill=0000
    RODATA            Offs=00018C  Size=000000  Align=00001  Fill=0000
    BSS               Offs=000090  Size=000000  Align=00001  Fill=0000
    DATA              Offs=00002E  Size=000000  Align=00001  Fill=0000
    ZEROPAGE          Offs=00002F  Size=000000  Align=00001  Fill=0000
    NULL              Offs=000000  Size=000000  Align=00001  Fill=0000
..\cc65\lib/nes.lib(memcpy.o):
    CODE              Offs=003847  Size=00003C  Align=00001  Fill=0000
    RODATA            Offs=00018C  Size=000000  Align=00001  Fill=0000
    BSS               Offs=000090  Size=000000  Align=00001  Fill=0000
    DATA              Offs=00002E  Size=000000  Align=00001  Fill=0000
    ZEROPAGE          Offs=00002F  Size=000000  Align=00001  Fill=0000
    NULL              Offs=000000  Size=000000  Align=00001  Fill=0000
..\cc65\lib/nes.lib(memset.o):
    CODE              Offs=003883  Size=00005D  Align=00001  Fill=0000
    RODATA            Offs=00018C  Size=000000  Align=00001  Fill=0000
    BSS               Offs=000090  Size=000000  Align=00001  Fill=0000
    DATA              Offs=00002E  Size=000000  Align=00001  Fill=0000
    ZEROPAGE          Offs=00002F  Size=000000  Align=00001  Fill=0000
    NULL              Offs=000000  Size=000000  Align=00001  Fill=0000
..\cc65\lib/nes.lib(mod.o):
    CODE              Offs=0038E0  Size=000011  Align=00001  Fill=0000
    RODATA            Offs=00018C  Size=000000  Align=00001  Fill=0000
    BSS               Offs=000090  Size=000000  Align=00001  Fill=0000
    DATA              Offs=00002E  Size=000000  Align=00001  Fill=0000
    ZEROPAGE          Offs=00002F  Size=000000  Align=00001  Fill=0000
    NULL              Offs=000000  Size=000000  Align=00001  Fill=0000
..\cc65\lib/nes.lib(negabs.o):
    CODE              Offs=0038F1  Size=000012  Align=00001  Fill=0000
    RODATA            Offs=00018C  Size=000000  Align=00001  Fill=0000
    BSS               Offs=000090  Size=000000  Align=00001  Fill=0000
    DATA              Offs=00002E  Size=000000  Align=00001  Fill=0000
    ZEROPAGE          Offs=00002F  Size=000000  Align=00001  Fill=0000
    NULL              Offs=000000  Size=000000  Align=00001  Fill=0000
..\cc65\lib/nes.lib(or.o):
    CODE              Offs=003903  Size=000012  Align=00001  Fill=0000
    RODATA            Offs=00018C  Size=000000  Align=00001  Fill=0000
    BSS               Offs=000090  Size=000000  Align=00001  Fill=0000
    DATA              Offs=00002E  Size=000000  Align=00001  Fill=0000
    ZEROPAGE          Offs=00002F  Size=000000  Align=00001  Fill=0000
    NULL              Offs=000000  Size=000000  Align=00001  Fill=0000
..\cc65\lib/nes.lib(popa.o):
    CODE              Offs=003915  Size=00000C  Align=00001  Fill=0000
    RODATA            Offs=00018C  Size=000000  Align=00001  Fill=0000
    BSS               Offs=000090  Size=000000  Align=00001  Fill=0000
    DATA              Offs=00002E  Size=000000  Align=00001  Fill=0000
    ZEROPAGE          Offs=00002F  Size=000000  Align=00001  Fill=0000
    NULL              Offs=000000  Size=000000  Align=00001  Fill=0000
..\cc65\lib/nes.lib(popptr1.o):
    CODE              Offs=003921  Size=00000E  Align=00001  Fill=0000
    RODATA            Offs=00018C  Size=000000  Align=00001  Fill=0000
    BSS               Offs=000090  Size=000000  Align=00001  Fill=0000
    DATA              Offs=00002E  Size=000000  Align=00001  Fill=0000
    ZEROPAGE          Offs=00002F  Size=000000  Align=00001  Fill=0000
    NULL              Offs=000000  Size=000000  Align=00001  Fill=0000
..\cc65\lib/nes.lib(pusha.o):
    CODE              Offs=00392F  Size=000016  Align=00001  Fill=0000
    RODATA            Offs=00018C  Size=000000  Align=00001  Fill=0000
    BSS               Offs=000090  Size=000000  Align=00001  Fill=0000
    DATA              Offs=00002E  Size=000000  Align=00001  Fill=0000
    ZEROPAGE          Offs=00002F  Size=000000  Align=00001  Fill=0000
    NULL              Offs=000000  Size=000000  Align=00001  Fill=0000
..\cc65\lib/nes.lib(pushax.o):
    CODE              Offs=003945  Size=00001A  Align=00001  Fill=0000
    RODATA            Offs=00018C  Size=000000  Align=00001  Fill=0000
    BSS               Offs=000090  Size=000000  Align=00001  Fill=0000
    DATA              Offs=00002E  Size=000000  Align=00001  Fill=0000
    ZEROPAGE          Offs=00002F  Size=000000  Align=00001  Fill=0000
    NULL              Offs=000000  Size=000000  Align=00001  Fill=0000
..\cc65\lib/nes.lib(pushwsp.o):
    CODE              Offs=00395F  Size=00001C  Align=00001  Fill=0000
    RODATA            Offs=00018C  Size=000000  Align=00001  Fill=0000
    BSS               Offs=000090  Size=000000  Align=00001  Fill=0000
    DATA              Offs=00002E  Size=000000  Align=00001  Fill=0000
    ZEROPAGE          Offs=00002F  Size=000000  Align=00001  Fill=0000
    NULL              Offs=000000  Size=000000  Align=00001  Fill=0000
..\cc65\lib/nes.lib(rand.o):
    CODE              Offs=00397B  Size=000034  Align=00001  Fill=0000
    RODATA            Offs=00018C  Size=000000  Align=00001  Fill=0000
    BSS               Offs=000090  Size=000000  Align=00001  Fill=0000
    DATA              Offs=00002E  Size=000004  Align=00001  Fill=0000
    ZEROPAGE          Offs=00002F  Size=000000  Align=00001  Fill=0000
    NULL              Offs=000000  Size=000000  Align=00001  Fill=0000
..\cc65\lib/nes.lib(regswap2.o):
    CODE              Offs=0039AF  Size=000016  Align=00001  Fill=0000
    RODATA            Offs=00018C  Size=000000  Align=00001  Fill=0000
    BSS               Offs=000090  Size=000000  Align=00001  Fill=0000
    DATA              Offs=000032  Size=000000  Align=00001  Fill=0000
    ZEROPAGE          Offs=00002F  Size=000000  Align=00001  Fill=0000
    NULL              Offs=000000  Size=000000  Align=00001  Fill=0000
..\cc65\lib/nes.lib(shelp.o):
    CODE              Offs=0039C5  Size=000020  Align=00001  Fill=0000
    RODATA            Offs=00018C  Size=000000  Align=00001  Fill=0000
    BSS               Offs=000090  Size=000000  Align=00001  Fill=0000
    DATA              Offs=000032  Size=000000  Align=00001  Fill=0000
    ZEROPAGE          Offs=00002F  Size=000000  Align=00001  Fill=0000
    NULL              Offs=000000  Size=000000  Align=00001  Fill=0000
..\cc65\lib/nes.lib(shrax2.o):
    CODE              Offs=0039E5  Size=00000B  Align=00001  Fill=0000
    RODATA            Offs=00018C  Size=000000  Align=00001  Fill=0000
    BSS               Offs=000090  Size=000000  Align=00001  Fill=0000
    DATA              Offs=000032  Size=000000  Align=00001  Fill=0000
    ZEROPAGE          Offs=00002F  Size=000000  Align=00001  Fill=0000
    NULL              Offs=000000  Size=000000  Align=00001  Fill=0000
..\cc65\lib/nes.lib(shrax3.o):
    CODE              Offs=0039F0  Size=00000E  Align=00001  Fill=0000
    RODATA            Offs=00018C  Size=000000  Align=00001  Fill=0000
    BSS               Offs=000090  Size=000000  Align=00001  Fill=0000
    DATA              Offs=000032  Size=000000  Align=00001  Fill=0000
    ZEROPAGE          Offs=00002F  Size=000000  Align=00001  Fill=0000
    NULL              Offs=000000  Size=000000  Align=00001  Fill=0000
..\cc65\lib/nes.lib(shrax4.o):
    CODE              Offs=0039FE  Size=000011  Align=00001  Fill=0000
    RODATA            Offs=00018C  Size=000000  Align=00001  Fill=0000
    BSS               Offs=000090  Size=000000  Align=00001  Fill=0000
    DATA              Offs=000032  Size=000000  Align=00001  Fill=0000
    ZEROPAGE          Offs=00002F  Size=000000  Align=00001  Fill=0000
    NULL              Offs=000000  Size=000000  Align=00001  Fill=0000
..\cc65\lib/nes.lib(staspidx.o):
    CODE              Offs=003A0F  Size=000016  Align=00001  Fill=0000
    RODATA            Offs=00018C  Size=000000  Align=00001  Fill=0000
    BSS               Offs=000090  Size=000000  Align=00001  Fill=0000
    DATA              Offs=000032  Size=000000  Align=00001  Fill=0000
    ZEROPAGE          Offs=00002F  Size=000000  Align=00001  Fill=0000
    NULL              Offs=000000  Size=000000  Align=00001  Fill=0000
..\cc65\lib/nes.lib(staxsp.o):
    CODE              Offs=003A25  Size=00000B  Align=00001  Fill=0000
    RODATA            Offs=00018C  Size=000000  Align=00001  Fill=0000
    BSS               Offs=000090  Size=000000  Align=00001  Fill=0000
    DATA              Offs=000032  Size=000000  Align=00001  Fill=0000
    ZEROPAGE          Offs=00002F  Size=000000  Align=00001  Fill=0000
    NULL              Offs=000000  Size=000000  Align=00001  Fill=0000
..\cc65\lib/nes.lib(staxspi.o):
    CODE              Offs=003A30  Size=00001B  Align=00001  Fill=0000
    RODATA            Offs=00018C  Size=000000  Align=00001  Fill=0000
    BSS               Offs=000090  Size=000000  Align=00001  Fill=0000
    DATA              Offs=000032  Size=000000  Align=00001  Fill=0000
    ZEROPAGE          Offs=00002F  Size=000000  Align=00001  Fill=0000
    NULL              Offs=000000  Size=000000  Align=00001  Fill=0000
..\cc65\lib/nes.lib(sub.o):
    CODE              Offs=003A4B  Size=000015  Align=00001  Fill=0000
    RODATA            Offs=00018C  Size=000000  Align=00001  Fill=0000
    BSS               Offs=000090  Size=000000  Align=00001  Fill=0000
    DATA              Offs=000032  Size=000000  Align=00001  Fill=0000
    ZEROPAGE          Offs=00002F  Size=000000  Align=00001  Fill=0000
    NULL              Offs=000000  Size=000000  Align=00001  Fill=0000
..\cc65\lib/nes.lib(subysp.o):
    CODE              Offs=003A60  Size=00000D  Align=00001  Fill=0000
    RODATA            Offs=00018C  Size=000000  Align=00001  Fill=0000
    BSS               Offs=000090  Size=000000  Align=00001  Fill=0000
    DATA              Offs=000032  Size=000000  Align=00001  Fill=0000
    ZEROPAGE          Offs=00002F  Size=000000  Align=00001  Fill=0000
    NULL              Offs=000000  Size=000000  Align=00001  Fill=0000
..\cc65\lib/nes.lib(udiv.o):
    CODE              Offs=003A6D  Size=00004F  Align=00001  Fill=0000
    RODATA            Offs=00018C  Size=000000  Align=00001  Fill=0000
    BSS               Offs=000090  Size=000000  Align=00001  Fill=0000
    DATA              Offs=000032  Size=000000  Align=00001  Fill=0000
    ZEROPAGE          Offs=00002F  Size=000000  Align=00001  Fill=0000
    NULL              Offs=000000  Size=000000  Align=00001  Fill=0000
..\cc65\lib/nes.lib(umod.o):
    CODE              Offs=003ABC  Size=000011  Align=00001  Fill=0000
    RODATA            Offs=00018C  Size=000000  Align=00001  Fill=0000
    BSS               Offs=000090  Size=000000  Align=00001  Fill=0000
    DATA              Offs=000032  Size=000000  Align=00001  Fill=0000
    ZEROPAGE          Offs=00002F  Size=000000  Align=00001  Fill=0000
    NULL              Offs=000000  Size=000000  Align=00001  Fill=0000
..\cc65\lib/nes.lib(zerobss.o):
    CODE              Offs=003ACD  Size=000023  Align=00001  Fill=0000
    RODATA            Offs=00018C  Size=000000  Align=00001  Fill=0000
    BSS               Offs=000090  Size=000000  Align=00001  Fill=0000
    DATA              Offs=000032  Size=000000  Align=00001  Fill=0000
    ZEROPAGE          Offs=00002F  Size=000000  Align=00001  Fill=0000
    NULL              Offs=000000  Size=000000  Align=00001  Fill=0000
..\cc65\lib/nes.lib(zeropage.o):
    CODE              Offs=003AF0  Size=000000  Align=00001  Fill=0000
    RODATA            Offs=00018C  Size=000000  Align=00001  Fill=0000
    BSS               Offs=000090  Size=000000  Align=00001  Fill=0000
    DATA              Offs=000032  Size=000000  Align=00001  Fill=0000
    ZEROPAGE          Offs=00002F  Size=00001A  Align=00001  Fill=0000
    NULL              Offs=000000  Size=000000  Align=00001  Fill=0000


Segment list:
-------------
Name                   Start     End    Size  Align
----------------------------------------------------
CHARS                 000000  000FFF  001000  00001
INESHDR               000000  000006  000007  00001
NULL                  000000  000000  000000  00001
ZEROPAGE              000000  000048  000049  00001
DATA                  000300  000331  000032  00001
BSS                   000332  0003C1  000090  00001
STARTUP               008000  008512  000513  00001
INIT                  008513  008513  000000  00001
ONCE                  008513  00851E  00000C  00001
CODE                  00851F  00C00E  003AF0  00001
RODATA                00C00F  00C19A  00018C  00001
SAMPLES               00FFC0  00FFC0  000000  00001
VECTORS               00FFFA  00FFFF  000006  00001


Exports list by name:
---------------------
FRAME_CNT1                000004  LZ    FRAME_CNT2                000005  LZ    
NAME_UPD_ADR              000007  LZ    NAME_UPD_ENABLE           000009  LZ    
NMICallback               000017  LZ    NTSC_MODE                 000003  LZ    
PAL_BG_PTR                00000B  LZ    PAL_SPR_PTR               00000D  LZ    
PAL_UPDATE                00000A  LZ    PPU_CTRL_VAR              000013 RLZ    
PPU_CTRL_VAR1             000014 RLZ    PPU_MASK_VAR              000015  LZ    
RAND_SEED                 00002D  LZ    SCROLL_X                  00000F  LZ    
SCROLL_X1                 000011 RLZ    SCROLL_Y                  000010  LZ    
SCROLL_Y1                 000012 RLZ    TEMP                      00001A RLZ    
VRAM_UPDATE               000006  LZ    _PALETTE                  00C12E  LA    
_RESCUE_TEXT              000306  LA    __BSS_LOAD__              000332  LA    
__BSS_RUN__               000332 RLA    __BSS_SIZE__              000090 REA    
__CODE_LOAD__             00851F  LA    __CODE_RUN__              00851F  LA    
__CODE_SIZE__             003AF0  EA    __CONSTRUCTOR_COUNT__     000000 REA    
__CONSTRUCTOR_TABLE__     008513 RLA    __DATA_LOAD__             00C19B RLA    
__DATA_RUN__              000300 RLA    __DATA_SIZE__             000032 REA    
__DESTRUCTOR_COUNT__      000000 REA    __DESTRUCTOR_TABLE__      00C19B RLA    
__INIT_LOAD__             008513  LA    __INIT_RUN__              008513  LA    
__INIT_SIZE__             000000  EA    __ONCE_LOAD__             008513  LA    
__ONCE_RUN__              008513  LA    __ONCE_SIZE__             00000C  EA    
__RAM_FILEOFFS__          000000  EA    __RAM_LAST__              0003C2  LA    
__RAM_SIZE__              000500 REA    __RAM_START__             000300 RLA    
__RODATA_LOAD__           00C00F  LA    __RODATA_RUN__            00C00F  LA    
__RODATA_SIZE__           00018C  EA    __STARTUP_LOAD__          008000  LA    
__STARTUP_RUN__           008000  LA    __STARTUP_SIZE__          000513  EA    
__STARTUP__               000001 REA    __ZP_FILEOFFS__           000000  EA    
__ZP_LAST__               000049  LA    __ZP_SIZE__               000100  EA    
__ZP_START__              000000  LA    ___bzero                  00BDA2  LA    
_abs                      00BE10  LA    _actors                   000382  LA    
_bank_bg                  00835D  LA    _bank_spr                 00834D  LA    
_bcd_add                  00851F RLA    _bzero                    00BDA2  LA    
_check_collision          009990  LA    _check_scroll_down        0093BF  LA    
_check_scroll_up          0093A8  LA    _create_actors_on_floor   008978  LA    
_danger_streets_music_data 00A5E7 RLA    _delay                    008439 RLA    
_demo_sounds              009D1A RLA    _draw_actor               00900E  LA    
_draw_entire_stage        008EE4  LA    _draw_floor_line          008A9B  LA    
_draw_scoreboard          00920A  LA    _exit                     008008  LA    
_fall_down                0093E6  LA    _famitone_init            009FDA REA    
_famitone_update          00A104 REA    _floors                   000332  LA    
_flush_vram_update        00839E  LA    _get_ceiling_yy           008F29  LA    
_get_closest_ladder       0092A9  LA    _get_floor_yy             008F05  LA    
_get_ppu_ctrl_var         0082C5  LA    _getntaddr                0085E0  LA    
_iabs                     009973  LA    _is_in_gap                008662  LA    
_is_ladder_close          00927D  LA    _ladder_in_gap            0086B4  LA    
_main                     009C53 RLA    _make_floors              0086EA  LA    
_memcpy                   00BD66 RLA    _memfill                  00B865  LA    
_memset                   00BDAA RLA    _mount_ladder             009321  LA    
_move_actor               009436  LA    _move_player              009947  LA    
_music_pause              00A0E0  EA    _music_play               00A073 REA    
_music_stop               00A035 REA    _nesclock                 008434  LA    
_nmi_set_callback         00822B RLA    _nt2attraddr              00862B  LA    
_oam_clear                0082CD RLA    _oam_clear_fast           00B894  LA    
_oam_hide_rest            0082ED RLA    _oam_meta_spr             00B957  LA    
_oam_meta_spr_clip        00B9A1  LA    _oam_meta_spr_pal         00B9F9 RLA    
_oam_off                  000016 RLZ    _oam_size                 0082DB  LA    
_oam_spr                  00BA49 RLA    _pad_poll                 00BA75 RLA    
_pad_state                00BAC0  LA    _pad_trigger              00BAB5  LA    
_pal_all                  008230 RLA    _pal_bg                   00824A  LA    
_pal_bg_bright            00828A  LA    _pal_bright               008298 RLA    
_pal_clear                00826D  LA    _pal_col                  00825D  LA    
_pal_spr                  008254  LA    _pal_spr_bright           00827C  LA    
_personToSave             00C0FD  LA    _pickup_object            009838  LA    
_play_scene               009B51  LA    _playerLClimb             00C0DB  LA    
_playerLJump              00C0CA  LA    _playerLRun1              00C097  LA    
_playerLRun2              00C0A8  LA    _playerLRun3              00C0B9  LA    
_playerLSad               00C0EC  LA    _playerLStand             00C086  LA    
_playerRClimb             00C064  LA    _playerRJump              00C053  LA    
_playerRRun1              00C020  LA    _playerRRun2              00C031  LA    
_playerRRun3              00C042  LA    _playerRSad               00C075  LA    
_playerRStand             00C00F  LA    _playerRunSeq             00C10E  LA    
_ppu_mask                 0082BD  LA    _ppu_off                  00829F RLA    
_ppu_on_all               0082A8 RLA    _ppu_on_bg                0082B1  LA    
_ppu_on_spr               0082B7  LA    _ppu_system               0082C0  LA    
_ppu_wait_frame           0082FA RLA    _ppu_wait_nmi             00830F  LA    
_rand                     00BEA6 RLA    _rand16                   00BAE9  LA    
_rand8                    00BADE RLA    _refresh_floor            008FDE  LA    
_refresh_sprites          009255  LA    _rescue_scene             009B30  LA    
_rndint                   0085B8  LA    _scroll                   00831A RLA    
_set_ppu_ctrl_var         0082CA  LA    _set_rand                 00BAF1  LA    
_set_scroll_pixel_yy      008F6C  LA    _set_vram_update          008395 RLA    
_setup_graphics           009C11  LA    _setup_sounds             009C3E  LA    
_sfx_init                 00A3D3 REA    _sfx_play                 009FC9 RLA    
_split                    00BAF8  LA    _splitxy                  00BB24  LA    
_srand                    00BE9A  LA    _type_message             009A89  LA    
_updptr                   000308  LA    _vram_adr                 0083F3 RLA    
_vram_fill                0083FE RLA    _vram_inc                 008420  LA    
_vram_put                 0083FA  LA    _vram_read                00BB83  LA    
_vram_unlz4               00B744  LA    _vram_unrle               00BBAD  LA    
_vram_write               00836E RLA    _vrambuf_clear            009C78 RLA    
_vrambuf_end              009C6F  LA    _vrambuf_flush            009C80 RLA    
_vrambuf_put              009C89 RLA    addeq0sp                  00BBE4  LA    
addeqysp                  00BBE6 RLA    addysp                    00BBF6 RLA    
addysp1                   00BBF5 RLA    aslax2                    00BC03 RLA    
aslax3                    00BC0E RLA    aslax4                    00BC1C RLA    
asrax2                    00BC2D RLA    asrax3                    00BC3C RLA    
booleq                    00BD40  LA    boolge                    00BD51  LA    
boolgt                    00BD4F  LA    boolle                    00BD47  LA    
boollt                    00BD49  LA    boolne                    00BD3A  LA    
booluge                   00BD61  LA    boolugt                   00BD5F  LA    
boolule                   00BD57  LA    boolult                   00BD59 RLA    
complax                   00BC50 RLA    condes                    000309  LA    
copydata                  00BC65 RLA    decsp1                    00BC92 RLA    
decsp2                    00BC9B RLA    decsp3                    00BCA8 RLA    
decsp4                    00BCB5 RLA    decsp5                    00BCC2 RLA    
donelib                   00BC59  LA    incsp1                    00BCFD RLA    
incsp2                    00BD0C RLA    incsp3                    00BD1A RLA    
incsp4                    00BD1F RLA    incsp5                    00BD24 RLA    
incsp8                    00BD29 RLA    initlib                   008513 RLA    
ldaidx                    00BD2E RLA    memcpy_getparams          00BD8F  LA    
memcpy_upwards            00BD69  LA    negax                     00BE14 RLA    
popa                      00BE34 RLA    popax                     00BD04 RLA    
popptr1                   00BE40 RLA    popsargsudiv16            00BEE4 RLA    
ptr1                      000037 RLZ    ptr2                      000039 RLZ    
ptr3                      00003B RLZ    ptr4                      00003D RLZ    
push0                     00BE64 RLA    pusha                     00BE52 RLA    
pusha0                    00BE66 RLA    pusha0sp                  00BE4E  LA    
pushax                    00BE68 RLA    pushaysp                  00BE50  LA    
pushw0sp                  00BE7E RLA    pushwysp                  00BE80 RLA    
regbank                   000043 RLZ    regsave                   000033 RLZ    
regswap2                  00BECE RLA    shlax2                    00BC03  LA    
shlax3                    00BC0E RLA    shlax4                    00BC1C  LA    
shrax2                    00BF04 RLA    shrax3                    00BF0F RLA    
shrax4                    00BF1D RLA    sp                        00002F RLZ    
sreg                      000031 RLZ    staspidx                  00BF2E RLA    
stax0sp                   00BF44 RLA    staxspidx                 00BF4F RLA    
staxysp                   00BF46 RLA    subysp                    00BF7F RLA    
tmp1                      00003F RLZ    tmp2                      000040 RLZ    
tmp3                      000041 RLZ    tmp4                      000042 RLZ    
tosicmp                   00BCD1 RLA    tosicmp0                  00BCCF  LA    
tosmoda0                  00BDFF  LA    tosmodax                  00BE01 RLA    
tosora0                   00BE22 RLA    tosorax                   00BE24  LA    
tossuba0                  00BF6A RLA    tossubax                  00BF6C RLA    
tosudiva0                 00BF8C  LA    tosudivax                 00BF8E  LA    
tosumoda0                 00BFDB RLA    tosumodax                 00BFDD  LA    
udiv16                    00BF9D RLA    zerobss                   00BFEC RLA    



Exports list by value:
----------------------
__ZP_FILEOFFS__           000000  EA    __CONSTRUCTOR_COUNT__     000000 REA    
__ZP_START__              000000  LA    __RAM_FILEOFFS__          000000  EA    
__INIT_SIZE__             000000  EA    __DESTRUCTOR_COUNT__      000000 REA    
__STARTUP__               000001 REA    NTSC_MODE                 000003  LZ    
FRAME_CNT1                000004  LZ    FRAME_CNT2                000005  LZ    
VRAM_UPDATE               000006  LZ    NAME_UPD_ADR              000007  LZ    
NAME_UPD_ENABLE           000009  LZ    PAL_UPDATE                00000A  LZ    
PAL_BG_PTR                00000B  LZ    __ONCE_SIZE__             00000C  EA    
PAL_SPR_PTR               00000D  LZ    SCROLL_X                  00000F  LZ    
SCROLL_Y                  000010  LZ    SCROLL_X1                 000011 RLZ    
SCROLL_Y1                 000012 RLZ    PPU_CTRL_VAR              000013 RLZ    
PPU_CTRL_VAR1             000014 RLZ    PPU_MASK_VAR              000015  LZ    
_oam_off                  000016 RLZ    NMICallback               000017  LZ    
TEMP                      00001A RLZ    RAND_SEED                 00002D  LZ    
sp                        00002F RLZ    sreg                      000031 RLZ    
__DATA_SIZE__             000032 REA    regsave                   000033 RLZ    
ptr1                      000037 RLZ    ptr2                      000039 RLZ    
ptr3                      00003B RLZ    ptr4                      00003D RLZ    
tmp1                      00003F RLZ    tmp2                      000040 RLZ    
tmp3                      000041 RLZ    tmp4                      000042 RLZ    
regbank                   000043 RLZ    __ZP_LAST__               000049  LA    
__BSS_SIZE__              000090 REA    __ZP_SIZE__               000100  EA    
__RODATA_SIZE__           00018C  EA    __RAM_START__             000300 RLA    
__DATA_RUN__              000300 RLA    _RESCUE_TEXT              000306  LA    
_updptr                   000308  LA    condes                    000309  LA    
_floors                   000332  LA    __BSS_LOAD__              000332  LA    
__BSS_RUN__               000332 RLA    _actors                   000382  LA    
__RAM_LAST__              0003C2  LA    __RAM_SIZE__              000500 REA    
__STARTUP_SIZE__          000513  EA    __CODE_SIZE__             003AF0  EA    
__STARTUP_RUN__           008000  LA    __STARTUP_LOAD__          008000  LA    
_exit                     008008  LA    _nmi_set_callback         00822B RLA    
_pal_all                  008230 RLA    _pal_bg                   00824A  LA    
_pal_spr                  008254  LA    _pal_col                  00825D  LA    
_pal_clear                00826D  LA    _pal_spr_bright           00827C  LA    
_pal_bg_bright            00828A  LA    _pal_bright               008298 RLA    
_ppu_off                  00829F RLA    _ppu_on_all               0082A8 RLA    
_ppu_on_bg                0082B1  LA    _ppu_on_spr               0082B7  LA    
_ppu_mask                 0082BD  LA    _ppu_system               0082C0  LA    
_get_ppu_ctrl_var         0082C5  LA    _set_ppu_ctrl_var         0082CA  LA    
_oam_clear                0082CD RLA    _oam_size                 0082DB  LA    
_oam_hide_rest            0082ED RLA    _ppu_wait_frame           0082FA RLA    
_ppu_wait_nmi             00830F  LA    _scroll                   00831A RLA    
_bank_spr                 00834D  LA    _bank_bg                  00835D  LA    
_vram_write               00836E RLA    _set_vram_update          008395 RLA    
_flush_vram_update        00839E  LA    _vram_adr                 0083F3 RLA    
_vram_put                 0083FA  LA    _vram_fill                0083FE RLA    
_vram_inc                 008420  LA    _nesclock                 008434  LA    
_delay                    008439 RLA    __INIT_LOAD__             008513  LA    
__CONSTRUCTOR_TABLE__     008513 RLA    initlib                   008513 RLA    
__ONCE_RUN__              008513  LA    __INIT_RUN__              008513  LA    
__ONCE_LOAD__             008513  LA    __CODE_LOAD__             00851F  LA    
__CODE_RUN__              00851F  LA    _bcd_add                  00851F RLA    
_rndint                   0085B8  LA    _getntaddr                0085E0  LA    
_nt2attraddr              00862B  LA    _is_in_gap                008662  LA    
_ladder_in_gap            0086B4  LA    _make_floors              0086EA  LA    
_create_actors_on_floor   008978  LA    _draw_floor_line          008A9B  LA    
_draw_entire_stage        008EE4  LA    _get_floor_yy             008F05  LA    
_get_ceiling_yy           008F29  LA    _set_scroll_pixel_yy      008F6C  LA    
_refresh_floor            008FDE  LA    _draw_actor               00900E  LA    
_draw_scoreboard          00920A  LA    _refresh_sprites          009255  LA    
_is_ladder_close          00927D  LA    _get_closest_ladder       0092A9  LA    
_mount_ladder             009321  LA    _check_scroll_up          0093A8  LA    
_check_scroll_down        0093BF  LA    _fall_down                0093E6  LA    
_move_actor               009436  LA    _pickup_object            009838  LA    
_move_player              009947  LA    _iabs                     009973  LA    
_check_collision          009990  LA    _type_message             009A89  LA    
_rescue_scene             009B30  LA    _play_scene               009B51  LA    
_setup_graphics           009C11  LA    _setup_sounds             009C3E  LA    
_main                     009C53 RLA    _vrambuf_end              009C6F  LA    
_vrambuf_clear            009C78 RLA    _vrambuf_flush            009C80 RLA    
_vrambuf_put              009C89 RLA    _demo_sounds              009D1A RLA    
_sfx_play                 009FC9 RLA    _famitone_init            009FDA REA    
_music_stop               00A035 REA    _music_play               00A073 REA    
_music_pause              00A0E0  EA    _famitone_update          00A104 REA    
_sfx_init                 00A3D3 REA    _danger_streets_music_data 00A5E7 RLA    
_vram_unlz4               00B744  LA    _memfill                  00B865  LA    
_oam_clear_fast           00B894  LA    _oam_meta_spr             00B957  LA    
_oam_meta_spr_clip        00B9A1  LA    _oam_meta_spr_pal         00B9F9 RLA    
_oam_spr                  00BA49 RLA    _pad_poll                 00BA75 RLA    
_pad_trigger              00BAB5  LA    _pad_state                00BAC0  LA    
_rand8                    00BADE RLA    _rand16                   00BAE9  LA    
_set_rand                 00BAF1  LA    _split                    00BAF8  LA    
_splitxy                  00BB24  LA    _vram_read                00BB83  LA    
_vram_unrle               00BBAD  LA    addeq0sp                  00BBE4  LA    
addeqysp                  00BBE6 RLA    addysp1                   00BBF5 RLA    
addysp                    00BBF6 RLA    aslax2                    00BC03 RLA    
shlax2                    00BC03  LA    shlax3                    00BC0E RLA    
aslax3                    00BC0E RLA    aslax4                    00BC1C RLA    
shlax4                    00BC1C  LA    asrax2                    00BC2D RLA    
asrax3                    00BC3C RLA    complax                   00BC50 RLA    
donelib                   00BC59  LA    copydata                  00BC65 RLA    
decsp1                    00BC92 RLA    decsp2                    00BC9B RLA    
decsp3                    00BCA8 RLA    decsp4                    00BCB5 RLA    
decsp5                    00BCC2 RLA    tosicmp0                  00BCCF  LA    
tosicmp                   00BCD1 RLA    incsp1                    00BCFD RLA    
popax                     00BD04 RLA    incsp2                    00BD0C RLA    
incsp3                    00BD1A RLA    incsp4                    00BD1F RLA    
incsp5                    00BD24 RLA    incsp8                    00BD29 RLA    
ldaidx                    00BD2E RLA    boolne                    00BD3A  LA    
booleq                    00BD40  LA    boolle                    00BD47  LA    
boollt                    00BD49  LA    boolgt                    00BD4F  LA    
boolge                    00BD51  LA    boolule                   00BD57  LA    
boolult                   00BD59 RLA    boolugt                   00BD5F  LA    
booluge                   00BD61  LA    _memcpy                   00BD66 RLA    
memcpy_upwards            00BD69  LA    memcpy_getparams          00BD8F  LA    
_bzero                    00BDA2  LA    ___bzero                  00BDA2  LA    
_memset                   00BDAA RLA    tosmoda0                  00BDFF  LA    
tosmodax                  00BE01 RLA    _abs                      00BE10  LA    
negax                     00BE14 RLA    tosora0                   00BE22 RLA    
tosorax                   00BE24  LA    popa                      00BE34 RLA    
popptr1                   00BE40 RLA    pusha0sp                  00BE4E  LA    
pushaysp                  00BE50  LA    pusha                     00BE52 RLA    
push0                     00BE64 RLA    pusha0                    00BE66 RLA    
pushax                    00BE68 RLA    pushw0sp                  00BE7E RLA    
pushwysp                  00BE80 RLA    _srand                    00BE9A  LA    
_rand                     00BEA6 RLA    regswap2                  00BECE RLA    
popsargsudiv16            00BEE4 RLA    shrax2                    00BF04 RLA    
shrax3                    00BF0F RLA    shrax4                    00BF1D RLA    
staspidx                  00BF2E RLA    stax0sp                   00BF44 RLA    
staxysp                   00BF46 RLA    staxspidx                 00BF4F RLA    
tossuba0                  00BF6A RLA    tossubax                  00BF6C RLA    
subysp                    00BF7F RLA    tosudiva0                 00BF8C  LA    
tosudivax                 00BF8E  LA    udiv16                    00BF9D RLA    
tosumoda0                 00BFDB RLA    tosumodax                 00BFDD  LA    
zerobss                   00BFEC RLA    _playerRStand             00C00F  LA    
__RODATA_RUN__            00C00F  LA    __RODATA_LOAD__           00C00F  LA    
_playerRRun1              00C020  LA    _playerRRun2              00C031  LA    
_playerRRun3              00C042  LA    _playerRJump              00C053  LA    
_playerRClimb             00C064  LA    _playerRSad               00C075  LA    
_playerLStand             00C086  LA    _playerLRun1              00C097  LA    
_playerLRun2              00C0A8  LA    _playerLRun3              00C0B9  LA    
_playerLJump              00C0CA  LA    _playerLClimb             00C0DB  LA    
_playerLSad               00C0EC  LA    _personToSave             00C0FD  LA    
_playerRunSeq             00C10E  LA    _PALETTE                  00C12E  LA    
__DATA_LOAD__             00C19B RLA    __DESTRUCTOR_TABLE__      00C19B RLA    



Imports list:
-------------
FRAME_CNT1 (crt0.o):
FRAME_CNT2 (crt0.o):
NAME_UPD_ADR (crt0.o):
NAME_UPD_ENABLE (crt0.o):
NMICallback (crt0.o):
NTSC_MODE (crt0.o):
PAL_BG_PTR (crt0.o):
PAL_SPR_PTR (crt0.o):
PAL_UPDATE (crt0.o):
PPU_CTRL_VAR (crt0.o):
    split.o                   ./../neslib/split.s:3
PPU_CTRL_VAR1 (crt0.o):
    split.o                   ./../neslib/split.s:3
PPU_MASK_VAR (crt0.o):
RAND_SEED (rand.o):
SCROLL_X (crt0.o):
SCROLL_X1 (crt0.o):
    splitxy.o                 ./../neslib/splitxy.s:2
    split.o                   ./../neslib/split.s:3
SCROLL_Y (crt0.o):
SCROLL_Y1 (crt0.o):
    splitxy.o                 ./../neslib/splitxy.s:2
TEMP (crt0.o):
    vram_unrle.o              ./../neslib/vram_unrle.s:2
    vram_read.o               ./../neslib/vram_read.s:2
    splitxy.o                 ./../neslib/splitxy.s:2
    split.o                   ./../neslib/split.s:3
    pad.o                     ./../neslib/pad.s:8
    oam_spr.o                 ./../neslib/oam_spr.s:2
    oam_meta_spr_pal.o        ./../neslib/oam_meta_spr_pal.s:2
    oam_meta_spr_clip.o       ./../neslib/oam_meta_spr_clip.s:2
    oam_meta_spr.o            ./../neslib/oam_meta_spr.s:2
    memfill.o                 ./../neslib/memfill.s:2
VRAM_UPDATE (crt0.o):
_PALETTE (climber.o):
_RESCUE_TEXT (climber.o):
__BSS_LOAD__ ([linker generated]):
__BSS_RUN__ ([linker generated]):
    zerobss.o                 common/zerobss.s:8
__BSS_SIZE__ ([linker generated]):
    zerobss.o                 common/zerobss.s:8
__CODE_LOAD__ ([linker generated]):
__CODE_RUN__ ([linker generated]):
__CODE_SIZE__ ([linker generated]):
__CONSTRUCTOR_COUNT__ ([linker generated]):
    condes.o                  runtime/condes.s:18
__CONSTRUCTOR_TABLE__ ([linker generated]):
    condes.o                  runtime/condes.s:18
__DATA_LOAD__ ([linker generated]):
    copydata.o                common/copydata.s:8
__DATA_RUN__ ([linker generated]):
    copydata.o                common/copydata.s:8
__DATA_SIZE__ ([linker generated]):
    copydata.o                common/copydata.s:8
__DESTRUCTOR_COUNT__ ([linker generated]):
    condes.o                  runtime/condes.s:19
__DESTRUCTOR_TABLE__ ([linker generated]):
    condes.o                  runtime/condes.s:19
__INIT_LOAD__ ([linker generated]):
__INIT_RUN__ ([linker generated]):
__INIT_SIZE__ ([linker generated]):
__ONCE_LOAD__ ([linker generated]):
__ONCE_RUN__ ([linker generated]):
__ONCE_SIZE__ ([linker generated]):
__RAM_FILEOFFS__ ([linker generated]):
__RAM_LAST__ ([linker generated]):
__RAM_SIZE__ ([linker generated]):
    crt0.o                    ./../neslib/crt0.s:9
__RAM_START__ ([linker generated]):
    crt0.o                    ./../neslib/crt0.s:9
__RODATA_LOAD__ ([linker generated]):
__RODATA_RUN__ ([linker generated]):
__RODATA_SIZE__ ([linker generated]):
__STARTUP_LOAD__ ([linker generated]):
__STARTUP_RUN__ ([linker generated]):
__STARTUP_SIZE__ ([linker generated]):
__STARTUP__ (crt0.o):
    climber.o                 climber.s:21
__ZP_FILEOFFS__ ([linker generated]):
__ZP_LAST__ ([linker generated]):
__ZP_SIZE__ ([linker generated]):
__ZP_START__ ([linker generated]):
___bzero (memset.o):
_abs (negabs.o):
_actors (climber.o):
_bank_bg (crt0.o):
_bank_spr (crt0.o):
_bcd_add (bcd.o):
    climber.o                 climber.s:50
_bzero (memset.o):
_check_collision (climber.o):
_check_scroll_down (climber.o):
_check_scroll_up (climber.o):
_create_actors_on_floor (climber.o):
_danger_streets_music_data (music_dangerstreets.o):
    climber.o                 climber.s:54
_delay (crt0.o):
    climber.o                 climber.s:46
_demo_sounds (demosounds.o):
    climber.o                 climber.s:55
_draw_actor (climber.o):
_draw_entire_stage (climber.o):
_draw_floor_line (climber.o):
_draw_scoreboard (climber.o):
_exit (crt0.o):
_fall_down (climber.o):
_famitone_init (famitone.o):
    climber.o                 climber.s:34
_famitone_update (famitone.o):
    climber.o                 climber.s:39
_floors (climber.o):
_flush_vram_update (crt0.o):
_get_ceiling_yy (climber.o):
_get_closest_ladder (climber.o):
_get_floor_yy (climber.o):
_get_ppu_ctrl_var (crt0.o):
_getntaddr (climber.o):
_iabs (climber.o):
_is_in_gap (climber.o):
_is_ladder_close (climber.o):
_ladder_in_gap (climber.o):
_main (climber.o):
    crt0.o                    ./../neslib/crt0.s:6
_make_floors (climber.o):
_memcpy (memcpy.o):
    vrambuf.o                 vrambuf.s:13
_memfill (memfill.o):
_memset (memset.o):
    climber.o                 climber.s:26
_mount_ladder (climber.o):
_move_actor (climber.o):
_move_player (climber.o):
_music_pause (famitone.o):
_music_play (famitone.o):
    climber.o                 climber.s:36
_music_stop (famitone.o):
    climber.o                 climber.s:37
_nesclock (crt0.o):
_nmi_set_callback (crt0.o):
    climber.o                 climber.s:48
_nt2attraddr (climber.o):
_oam_clear (crt0.o):
    climber.o                 climber.s:31
_oam_clear_fast (oam_clear_fast.o):
_oam_hide_rest (crt0.o):
    climber.o                 climber.s:33
_oam_meta_spr (oam_meta_spr.o):
_oam_meta_spr_clip (oam_meta_spr_clip.o):
_oam_meta_spr_pal (oam_meta_spr_pal.o):
    climber.o                 climber.s:47
_oam_off (crt0.o):
    oam_meta_spr_pal.o        ./../neslib/oam_meta_spr_pal.s:2
    oam_meta_spr_clip.o       ./../neslib/oam_meta_spr_clip.s:2
    climber.o                 climber.s:49
_oam_size (crt0.o):
_oam_spr (oam_spr.o):
    climber.o                 climber.s:32
_pad_poll (pad.o):
    climber.o                 climber.s:40
_pad_state (pad.o):
_pad_trigger (pad.o):
_pal_all (crt0.o):
    climber.o                 climber.s:27
_pal_bg (crt0.o):
_pal_bg_bright (crt0.o):
_pal_bright (crt0.o):
    climber.o                 climber.s:28
_pal_clear (crt0.o):
_pal_col (crt0.o):
_pal_spr (crt0.o):
_pal_spr_bright (crt0.o):
_personToSave (climber.o):
_pickup_object (climber.o):
_play_scene (climber.o):
_playerLClimb (climber.o):
_playerLJump (climber.o):
_playerLRun1 (climber.o):
_playerLRun2 (climber.o):
_playerLRun3 (climber.o):
_playerLSad (climber.o):
_playerLStand (climber.o):
_playerRClimb (climber.o):
_playerRJump (climber.o):
_playerRRun1 (climber.o):
_playerRRun2 (climber.o):
_playerRRun3 (climber.o):
_playerRSad (climber.o):
_playerRStand (climber.o):
_playerRunSeq (climber.o):
_ppu_mask (crt0.o):
_ppu_off (crt0.o):
    climber.o                 climber.s:29
_ppu_on_all (crt0.o):
    climber.o                 climber.s:30
_ppu_on_bg (crt0.o):
_ppu_on_spr (crt0.o):
_ppu_system (crt0.o):
_ppu_wait_frame (crt0.o):
    vrambuf.o                 vrambuf.s:14
_ppu_wait_nmi (crt0.o):
_rand (rand.o):
    climber.o                 climber.s:25
_rand16 (rand.o):
_rand8 (rand.o):
    climber.o                 climber.s:42
_refresh_floor (climber.o):
_refresh_sprites (climber.o):
_rescue_scene (climber.o):
_rndint (climber.o):
_scroll (crt0.o):
    climber.o                 climber.s:41
_set_ppu_ctrl_var (crt0.o):
_set_rand (rand.o):
_set_scroll_pixel_yy (climber.o):
_set_vram_update (crt0.o):
    climber.o                 climber.s:43
_setup_graphics (climber.o):
_setup_sounds (climber.o):
_sfx_init (famitone.o):
    climber.o                 climber.s:35
_sfx_play (famitone.o):
    climber.o                 climber.s:38
_split (split.o):
_splitxy (splitxy.o):
_srand (rand.o):
_type_message (climber.o):
_updptr (vrambuf.o):
_vram_adr (crt0.o):
    climber.o                 climber.s:44
_vram_fill (crt0.o):
    climber.o                 climber.s:45
_vram_inc (crt0.o):
_vram_put (crt0.o):
_vram_read (vram_read.o):
_vram_unlz4 (lz4vram.o):
_vram_unrle (vram_unrle.o):
_vram_write (crt0.o):
    lz4vram.o                 ./../neslib/lz4vram.s:10
_vrambuf_clear (vrambuf.o):
    climber.o                 climber.s:51
_vrambuf_end (vrambuf.o):
_vrambuf_flush (vrambuf.o):
    climber.o                 climber.s:52
_vrambuf_put (vrambuf.o):
    climber.o                 climber.s:53
addeq0sp (addeqsp.o):
addeqysp (addeqsp.o):
    climber.o                 climber.s:4428
addysp (addysp.o):
    incsp8.o                  runtime/incsp8.s:8
    incsp5.o                  runtime/incsp5.s:8
    incsp4.o                  runtime/incsp4.s:8
    incsp3.o                  runtime/incsp3.s:8
    climber.o                 climber.s:4428
    climber.o                 climber.s:4428
addysp1 (addysp.o):
    sub.o                     runtime/sub.s:8
    or.o                      runtime/or.s:9
aslax2 (aslax2.o):
    climber.o                 climber.s:4428
    climber.o                 climber.s:4428
    climber.o                 climber.s:4428
    climber.o                 climber.s:4428
    climber.o                 climber.s:4428
    climber.o                 climber.s:4428
    climber.o                 climber.s:4428
    climber.o                 climber.s:4428
    climber.o                 climber.s:4428
aslax3 (aslax3.o):
    climber.o                 climber.s:4428
    climber.o                 climber.s:4428
    climber.o                 climber.s:4428
    climber.o                 climber.s:4428
    climber.o                 climber.s:4428
aslax4 (aslax4.o):
    climber.o                 climber.s:4428
asrax2 (asrax2.o):
    climber.o                 climber.s:4428
asrax3 (asrax3.o):
    climber.o                 climber.s:4428
booleq (makebool.o):
boolge (makebool.o):
boolgt (makebool.o):
boolle (makebool.o):
boollt (makebool.o):
boolne (makebool.o):
booluge (makebool.o):
boolugt (makebool.o):
boolule (makebool.o):
boolult (makebool.o):
    climber.o                 climber.s:4428
complax (compl.o):
    bcd.o                     bcd.s:115
condes (condes.o):
copydata (copydata.o):
    crt0.o                    ./../neslib/crt0.s:6
decsp1 (decsp1.o):
    climber.o                 climber.s:4428
    climber.o                 climber.s:4428
    climber.o                 climber.s:4428
    climber.o                 climber.s:4428
    climber.o                 climber.s:4428
    climber.o                 climber.s:4428
    climber.o                 climber.s:4428
    climber.o                 climber.s:4428
decsp2 (decsp2.o):
    climber.o                 climber.s:4428
decsp3 (decsp3.o):
    climber.o                 climber.s:4428
    climber.o                 climber.s:4428
    climber.o                 climber.s:4428
    climber.o                 climber.s:4428
decsp4 (decsp4.o):
    climber.o                 climber.s:4428
    climber.o                 climber.s:4428
    climber.o                 climber.s:4428
decsp5 (decsp5.o):
    climber.o                 climber.s:4428
donelib (condes.o):
incsp1 (incsp1.o):
    climber.o                 climber.s:4428
    climber.o                 climber.s:4428
    climber.o                 climber.s:4428
    climber.o                 climber.s:4428
    climber.o                 climber.s:4428
    climber.o                 climber.s:4428
    climber.o                 climber.s:4428
    climber.o                 climber.s:4428
    climber.o                 climber.s:4428
incsp2 (incsp2.o):
    staxspi.o                 runtime/staxspi.s:9
    staspidx.o                runtime/staspidx.s:8
    popptr1.o                 runtime/popptr1.s:8
    climber.o                 climber.s:4428
    climber.o                 climber.s:4428
    climber.o                 climber.s:4428
    climber.o                 climber.s:4428
    climber.o                 climber.s:4428
    climber.o                 climber.s:4428
    climber.o                 climber.s:4428
    climber.o                 climber.s:4428
    climber.o                 climber.s:4428
    climber.o                 climber.s:4428
    climber.o                 climber.s:4428
    climber.o                 climber.s:4428
incsp3 (incsp3.o):
    climber.o                 climber.s:4428
incsp4 (incsp4.o):
    climber.o                 climber.s:4428
    climber.o                 climber.s:4428
    climber.o                 climber.s:4428
    climber.o                 climber.s:4428
    climber.o                 climber.s:4428
    climber.o                 climber.s:4428
incsp5 (incsp5.o):
    vrambuf.o                 vrambuf.s:154
    climber.o                 climber.s:4428
    climber.o                 climber.s:4428
    climber.o                 climber.s:4428
incsp8 (incsp8.o):
    bcd.o                     bcd.s:115
initlib (condes.o):
    crt0.o                    ./../neslib/crt0.s:6
ldaidx (ldai.o):
    climber.o                 climber.s:4428
memcpy_getparams (memcpy.o):
memcpy_upwards (memcpy.o):
negax (negabs.o):
    shelp.o                   runtime/shelp.s:11
    mod.o                     runtime/mod.s:11
popa (popa.o):
    oam_meta_spr_clip.o       ./../neslib/oam_meta_spr_clip.s:3
    memfill.o                 ./../neslib/memfill.s:3
    crt0.o                    ./../neslib/crt0.s:6
    famitone.o                famitone.s:16
popax (incsp2.o):
    shelp.o                   runtime/shelp.s:11
    memset.o                  common/memset.s:19
    memcpy.o                  common/memcpy.s:14
    vram_read.o               ./../neslib/vram_read.s:3
    splitxy.o                 ./../neslib/splitxy.s:3
    split.o                   ./../neslib/split.s:4
    oam_meta_spr_clip.o       ./../neslib/oam_meta_spr_clip.s:3
    memfill.o                 ./../neslib/memfill.s:3
    lz4vram.o                 ./../neslib/lz4vram.s:10
    crt0.o                    ./../neslib/crt0.s:6
popptr1 (popptr1.o):
    umod.o                    runtime/umod.s:8
    udiv.o                    runtime/udiv.s:9
    memcpy.o                  common/memcpy.s:14
popsargsudiv16 (shelp.o):
    mod.o                     runtime/mod.s:11
ptr1 (zeropage.o):
    zerobss.o                 common/zerobss.s:9
    udiv.o                    runtime/udiv.s:10
    staxspi.o                 runtime/staxspi.s:10
    staspidx.o                runtime/staspidx.s:9
    shelp.o                   runtime/shelp.s:12
    popptr1.o                 runtime/popptr1.s:9
    memset.o                  common/memset.s:20
    memcpy.o                  common/memcpy.s:15
    ldai.o                    runtime/ldai.s:8
    copydata.o                common/copydata.s:9
    lz4vram.o                 ./../neslib/lz4vram.s:8
    vrambuf.o                 vrambuf.s:11
    climber.o                 climber.s:11
    bcd.o                     bcd.s:11
ptr2 (zeropage.o):
    memset.o                  common/memset.s:20
    memcpy.o                  common/memcpy.s:15
    copydata.o                common/copydata.s:9
    lz4vram.o                 ./../neslib/lz4vram.s:8
    climber.o                 climber.s:11
ptr3 (zeropage.o):
    memset.o                  common/memset.s:20
    memcpy.o                  common/memcpy.s:15
    lz4vram.o                 ./../neslib/lz4vram.s:8
ptr4 (zeropage.o):
    umod.o                    runtime/umod.s:9
    udiv.o                    runtime/udiv.s:10
    shelp.o                   runtime/shelp.s:12
    lz4vram.o                 ./../neslib/lz4vram.s:8
push0 (pushax.o):
    climber.o                 climber.s:4428
pusha (pusha.o):
    vrambuf.o                 vrambuf.s:154
    climber.o                 climber.s:4428
    climber.o                 climber.s:4428
    climber.o                 climber.s:4428
    climber.o                 climber.s:4428
    climber.o                 climber.s:4428
    climber.o                 climber.s:4428
    climber.o                 climber.s:4428
    climber.o                 climber.s:4428
    climber.o                 climber.s:4428
    climber.o                 climber.s:4428
    climber.o                 climber.s:4428
    climber.o                 climber.s:4428
    climber.o                 climber.s:4428
    climber.o                 climber.s:4428
    climber.o                 climber.s:4428
    climber.o                 climber.s:4428
    climber.o                 climber.s:4428
    climber.o                 climber.s:4428
    climber.o                 climber.s:4428
    climber.o                 climber.s:4428
    climber.o                 climber.s:4428
    climber.o                 climber.s:4428
pusha0 (pushax.o):
    climber.o                 climber.s:4428
    climber.o                 climber.s:4428
    climber.o                 climber.s:4428
    climber.o                 climber.s:4428
    climber.o                 climber.s:4428
    climber.o                 climber.s:4428
    climber.o                 climber.s:4428
    climber.o                 climber.s:4428
    climber.o                 climber.s:4428
pusha0sp (pusha.o):
pushax (pushax.o):
    lz4vram.o                 ./../neslib/lz4vram.s:10
    vrambuf.o                 vrambuf.s:154
    climber.o                 climber.s:4428
    climber.o                 climber.s:4428
    climber.o                 climber.s:4428
    climber.o                 climber.s:4428
    climber.o                 climber.s:4428
    climber.o                 climber.s:4428
    climber.o                 climber.s:4428
    climber.o                 climber.s:4428
    climber.o                 climber.s:4428
    climber.o                 climber.s:4428
    climber.o                 climber.s:4428
    climber.o                 climber.s:4428
    climber.o                 climber.s:4428
    climber.o                 climber.s:4428
    bcd.o                     bcd.s:115
pushaysp (pusha.o):
pushw0sp (pushwsp.o):
    climber.o                 climber.s:4428
    climber.o                 climber.s:4428
pushwysp (pushwsp.o):
    climber.o                 climber.s:4428
    climber.o                 climber.s:4428
regbank (zeropage.o):
    regswap2.o                runtime/regswap2.s:8
    vrambuf.o                 vrambuf.s:10
    bcd.o                     bcd.s:10
regsave (zeropage.o):
    lz4vram.o                 ./../neslib/lz4vram.s:7
    climber.o                 climber.s:10
regswap2 (regswap2.o):
    vrambuf.o                 vrambuf.s:154
shlax2 (aslax2.o):
shlax3 (aslax3.o):
    climber.o                 climber.s:4428
shlax4 (aslax4.o):
shrax2 (shrax2.o):
    climber.o                 climber.s:4428
    bcd.o                     bcd.s:115
shrax3 (shrax3.o):
    bcd.o                     bcd.s:115
shrax4 (shrax4.o):
    climber.o                 climber.s:4428
sp (zeropage.o):
    subysp.o                  runtime/subysp.s:9
    sub.o                     runtime/sub.s:9
    staxspi.o                 runtime/staxspi.s:10
    staxsp.o                  runtime/staxsp.s:8
    staspidx.o                runtime/staspidx.s:9
    regswap2.o                runtime/regswap2.s:8
    pushwsp.o                 runtime/pushwsp.s:8
    pushax.o                  runtime/pushax.s:8
    pusha.o                   runtime/pusha.s:8
    popptr1.o                 runtime/popptr1.s:9
    popa.o                    runtime/popa.s:8
    or.o                      runtime/or.s:10
    memset.o                  common/memset.s:20
    memcpy.o                  common/memcpy.s:15
    incsp2.o                  runtime/incsp2.s:8
    incsp1.o                  runtime/incsp1.s:8
    icmp.o                    runtime/icmp.s:9
    decsp5.o                  runtime/decsp5.s:8
    decsp4.o                  runtime/decsp4.s:8
    decsp3.o                  runtime/decsp3.s:8
    decsp2.o                  runtime/decsp2.s:8
    decsp1.o                  runtime/decsp1.s:8
    addysp.o                  runtime/addysp.s:8
    addeqsp.o                 runtime/addeqsp.s:8
    oam_spr.o                 ./../neslib/oam_spr.s:2
    oam_meta_spr_pal.o        ./../neslib/oam_meta_spr_pal.s:2
    oam_meta_spr.o            ./../neslib/oam_meta_spr.s:2
    crt0.o                    ..\..\cc65\asminc/zeropage.inc:11
    vrambuf.o                 vrambuf.s:10
    climber.o                 climber.s:10
    bcd.o                     bcd.s:10
sreg (zeropage.o):
    umod.o                    runtime/umod.s:9
    udiv.o                    runtime/udiv.s:10
    mod.o                     runtime/mod.s:12
    icmp.o                    runtime/icmp.s:9
    lz4vram.o                 ./../neslib/lz4vram.s:7
    climber.o                 climber.s:10
staspidx (staspidx.o):
    climber.o                 climber.s:4428
    climber.o                 climber.s:4428
stax0sp (staxsp.o):
    climber.o                 climber.s:4428
staxspidx (staxspi.o):
    climber.o                 climber.s:4428
    climber.o                 climber.s:4428
staxysp (staxsp.o):
    climber.o                 climber.s:4428
    climber.o                 climber.s:4428
    climber.o                 climber.s:4428
subysp (subysp.o):
    climber.o                 climber.s:4428
tmp1 (zeropage.o):
    staxspi.o                 runtime/staxspi.s:10
    staspidx.o                runtime/staspidx.s:9
    shrax4.o                  runtime/shrax4.s:8
    shrax3.o                  runtime/shrax3.s:8
    shrax2.o                  runtime/shrax2.s:8
    shelp.o                   runtime/shelp.s:12
    or.o                      runtime/or.s:10
    mod.o                     runtime/mod.s:12
    copydata.o                common/copydata.s:9
    asrax3.o                  runtime/asrax3.s:9
    asrax2.o                  runtime/asrax2.s:8
    aslax4.o                  runtime/aslax4.s:8
    aslax3.o                  runtime/aslax3.s:8
    aslax2.o                  runtime/aslax2.s:8
    lz4vram.o                 ./../neslib/lz4vram.s:8
    climber.o                 climber.s:11
tmp2 (zeropage.o):
    shelp.o                   runtime/shelp.s:12
    lz4vram.o                 ./../neslib/lz4vram.s:8
tmp3 (zeropage.o):
    lz4vram.o                 ./../neslib/lz4vram.s:8
tmp4 (zeropage.o):
    lz4vram.o                 ./../neslib/lz4vram.s:8
tosicmp (icmp.o):
    climber.o                 climber.s:4428
    climber.o                 climber.s:4428
    climber.o                 climber.s:4428
    climber.o                 climber.s:4428
    climber.o                 climber.s:4428
tosicmp0 (icmp.o):
tosmoda0 (mod.o):
tosmodax (mod.o):
    climber.o                 climber.s:4428
    climber.o                 climber.s:4428
tosora0 (or.o):
    climber.o                 climber.s:4428
tosorax (or.o):
tossuba0 (sub.o):
    climber.o                 climber.s:4428
    climber.o                 climber.s:4428
    climber.o                 climber.s:4428
tossubax (sub.o):
    climber.o                 climber.s:4428
    climber.o                 climber.s:4428
    climber.o                 climber.s:4428
    climber.o                 climber.s:4428
tosudiva0 (udiv.o):
tosudivax (udiv.o):
tosumoda0 (umod.o):
    climber.o                 climber.s:4428
    climber.o                 climber.s:4428
tosumodax (umod.o):
udiv16 (udiv.o):
    umod.o                    runtime/umod.s:8
    shelp.o                   runtime/shelp.s:11
zerobss (zerobss.o):
    crt0.o                    ./../neslib/crt0.s:6

